; ModuleID = '54/114.c'
source_filename = "54/114.c"
target datalayout = "e-m:e-p270:32:32-p271:32:32-p272:64:64-i64:64-f80:128-n8:16:32:64-S128"
target triple = "x86_64-pc-linux-gnu"

@e = common dso_local global i32 0, align 4
@.str = private unnamed_addr constant [6 x i8] c"%d %d\00", align 1
@.str.1 = private unnamed_addr constant [3 x i8] c"%d\00", align 1

; Function Attrs: noinline nounwind uwtable
define dso_local i32 @cs(i32 %0, i32 %1, i32 %2) #0 {
  %4 = alloca i32, align 4
  %5 = alloca i32, align 4
  %6 = alloca i32, align 4
  %7 = alloca i32, align 4
  store i32 %0, i32* %5, align 4
  store i32 %1, i32* %6, align 4
  store i32 %2, i32* %7, align 4
  %8 = load i32, i32* @e, align 4
  %9 = icmp eq i32 %8, 0
  br i1 %9, label %10, label %11

10:                                               ; preds = %3
  store i32 1, i32* %4, align 4
  br label %34

11:                                               ; preds = %3
  %12 = load i32, i32* %5, align 4
  %13 = load i32, i32* %6, align 4
  %14 = srem i32 %12, %13
  %15 = load i32, i32* %7, align 4
  %16 = icmp eq i32 %14, %15
  br i1 %16, label %17, label %33

17:                                               ; preds = %11
  %18 = load i32, i32* %5, align 4
  %19 = load i32, i32* %6, align 4
  %20 = icmp sgt i32 %18, %19
  br i1 %20, label %21, label %33

21:                                               ; preds = %17
  %22 = load i32, i32* @e, align 4
  %23 = add nsw i32 %22, -1
  store i32 %23, i32* @e, align 4
  %24 = load i32, i32* %5, align 4
  %25 = load i32, i32* %6, align 4
  %26 = sdiv i32 %24, %25
  %27 = load i32, i32* %6, align 4
  %28 = sub nsw i32 %27, 1
  %29 = mul nsw i32 %26, %28
  %30 = load i32, i32* %6, align 4
  %31 = load i32, i32* %7, align 4
  %32 = call i32 @cs(i32 %29, i32 %30, i32 %31)
  store i32 %32, i32* %4, align 4
  br label %34

33:                                               ; preds = %17, %11
  store i32 0, i32* %4, align 4
  br label %34

34:                                               ; preds = %33, %21, %10
  %35 = load i32, i32* %4, align 4
  ret i32 %35
}

; Function Attrs: noinline nounwind uwtable
define dso_local void @main() #0 {
  %1 = alloca i32, align 4
  %2 = alloca i32, align 4
  %3 = alloca i32, align 4
  %4 = call i32 (i8*, ...) @__isoc99_scanf(i8* getelementptr inbounds ([6 x i8], [6 x i8]* @.str, i64 0, i64 0), i32* %1, i32* %2)
  store i32 1, i32* %3, align 4
  br label %5

5:                                                ; preds = %16, %0
  %6 = load i32, i32* %1, align 4
  store i32 %6, i32* @e, align 4
  %7 = load i32, i32* %3, align 4
  %8 = load i32, i32* %1, align 4
  %9 = load i32, i32* %2, align 4
  %10 = call i32 @cs(i32 %7, i32 %8, i32 %9)
  %11 = icmp eq i32 %10, 1
  br i1 %11, label %12, label %15

12:                                               ; preds = %5
  %13 = load i32, i32* %3, align 4
  %14 = call i32 (i8*, ...) @printf(i8* getelementptr inbounds ([3 x i8], [3 x i8]* @.str.1, i64 0, i64 0), i32 %13)
  br label %19

15:                                               ; preds = %5
  br label %16

16:                                               ; preds = %15
  %17 = load i32, i32* %3, align 4
  %18 = add nsw i32 %17, 1
  store i32 %18, i32* %3, align 4
  br label %5

19:                                               ; preds = %12
  ret void
}

declare dso_local i32 @__isoc99_scanf(i8*, ...) #1

declare dso_local i32 @printf(i8*, ...) #1


!llvm.module.flags = !{!0}
!llvm.ident = !{!1}

!0 = !{i32 1, !"wchar_size", i32 4}
!1 = !{!"clang version 10.0.0-4ubuntu1 "}
